; Function Attrs: mustprogress nofree norecurse nosync nounwind willreturn memory(argmem: readwrite) uwtable
define hidden i32 @_PyDictKeys_GetVersionForCurrentState(ptr noundef captures(none) %0, ptr noundef captures(none) %1) local_unnamed_addr #5 {
  %3 = getelementptr inbounds nuw i8, ptr %1, i64 12
  %4 = load i32, ptr %3, align 4, !tbaa !50
  %.not = icmp eq i32 %4, 0
  br i1 %.not, label %5, label %11

5:                                                ; preds = %2
  %6 = getelementptr inbounds nuw i8, ptr %0, i64 79664
  %7 = load i32, ptr %6, align 8, !tbaa !141
  %8 = icmp eq i32 %7, 0
  br i1 %8, label %get_next_dict_keys_version.exit, label %9

9:                                                ; preds = %5
  %10 = add i32 %7, 1
  store i32 %10, ptr %6, align 8, !tbaa !141
  br label %get_next_dict_keys_version.exit

get_next_dict_keys_version.exit:                  ; preds = %5, %9
  store i32 %7, ptr %3, align 4, !tbaa !50
  br label %11

11:                                               ; preds = %2, %get_next_dict_keys_version.exit
  %.0 = phi i32 [ %7, %get_next_dict_keys_version.exit ], [ %4, %2 ]
  ret i32 %.0
}